target datalayout = "e-m:e-p270:32:32-p271:32:32-p272:64:64-i64:64-i128:128-f80:128-n8:16:32:64-S128"
target triple = "x86_64-pc-linux-gnu"

%class.btConvexHullInternal = type { %class.btVector3, %class.btVector3, %"class.btConvexHullInternal::Pool", %"class.btConvexHullInternal::Pool.0", %"class.btConvexHullInternal::Pool.2", %class.btAlignedObjectArray, i32, i32, i32, i32, i32, i32, ptr }
%class.btVector3 = type { [4 x float] }
%"class.btConvexHullInternal::Pool" = type <{ ptr, ptr, ptr, i32, [4 x i8] }>
%"class.btConvexHullInternal::Pool.0" = type <{ ptr, ptr, ptr, i32, [4 x i8] }>
%"class.btConvexHullInternal::Pool.2" = type <{ ptr, ptr, ptr, i32, [4 x i8] }>
%class.btAlignedObjectArray = type <{ [4 x i8], i32, i32, [4 x i8], ptr, i8, [7 x i8] }>
%"class.btConvexHullInternal::Point32" = type { i32, i32, i32, i32 }

; Function Attrs: inlinehint mustprogress nounwind uwtable
define linkonce_odr dso_local void @_ZN9btVector3C2ERKfS1_S1_(ptr noundef nonnull align 4 dereferenceable(16) %0, ptr noundef nonnull align 4 dereferenceable(4) %1, ptr noundef nonnull align 4 dereferenceable(4) %2, ptr noundef nonnull align 4 dereferenceable(4) %3) unnamed_addr #5 comdat align 2 {
  %5 = alloca ptr, align 8
  %6 = alloca ptr, align 8
  %7 = alloca ptr, align 8
  %8 = alloca ptr, align 8
  store ptr %0, ptr %5, align 8, !tbaa !153
  store ptr %1, ptr %6, align 8, !tbaa !141
  store ptr %2, ptr %7, align 8, !tbaa !141
  store ptr %3, ptr %8, align 8, !tbaa !141
  %9 = load ptr, ptr %5, align 8
  %10 = load ptr, ptr %6, align 8, !tbaa !141
  %11 = load float, ptr %10, align 4, !tbaa !132
  %12 = getelementptr inbounds nuw %class.btVector3, ptr %9, i32 0, i32 0
  %13 = getelementptr inbounds [4 x float], ptr %12, i64 0, i64 0
  store float %11, ptr %13, align 4, !tbaa !132
  %14 = load ptr, ptr %7, align 8, !tbaa !141
  %15 = load float, ptr %14, align 4, !tbaa !132
  %16 = getelementptr inbounds nuw %class.btVector3, ptr %9, i32 0, i32 0
  %17 = getelementptr inbounds [4 x float], ptr %16, i64 0, i64 1
  store float %15, ptr %17, align 4, !tbaa !132
  %18 = load ptr, ptr %8, align 8, !tbaa !141
  %19 = load float, ptr %18, align 4, !tbaa !132
  %20 = getelementptr inbounds nuw %class.btVector3, ptr %9, i32 0, i32 0
  %21 = getelementptr inbounds [4 x float], ptr %20, i64 0, i64 2
  store float %19, ptr %21, align 4, !tbaa !132
  %22 = getelementptr inbounds nuw %class.btVector3, ptr %9, i32 0, i32 0
  %23 = getelementptr inbounds [4 x float], ptr %22, i64 0, i64 3
  store float 0.000000e+00, ptr %23, align 4, !tbaa !132
  ret void
}

; Function Attrs: inlinehint mustprogress uwtable
define linkonce_odr dso_local { <2 x float>, <2 x float> } @_ZmlRK9btVector3S1_(ptr noundef nonnull align 4 dereferenceable(16) %0, ptr noundef nonnull align 4 dereferenceable(16) %1) #7 comdat {
  %3 = alloca %class.btVector3, align 4
  %4 = alloca ptr, align 8
  %5 = alloca ptr, align 8
  %6 = alloca float, align 4
  %7 = alloca float, align 4
  %8 = alloca float, align 4
  store ptr %0, ptr %4, align 8, !tbaa !153
  store ptr %1, ptr %5, align 8, !tbaa !153
  call void @llvm.lifetime.start.p0(i64 4, ptr %6) #13
  %9 = load ptr, ptr %4, align 8, !tbaa !153
  %10 = getelementptr inbounds nuw %class.btVector3, ptr %9, i32 0, i32 0
  %11 = getelementptr inbounds [4 x float], ptr %10, i64 0, i64 0
  %12 = load float, ptr %11, align 4, !tbaa !132
  %13 = load ptr, ptr %5, align 8, !tbaa !153
  %14 = getelementptr inbounds nuw %class.btVector3, ptr %13, i32 0, i32 0
  %15 = getelementptr inbounds [4 x float], ptr %14, i64 0, i64 0
  %16 = load float, ptr %15, align 4, !tbaa !132
  %17 = fmul float %12, %16
  store float %17, ptr %6, align 4, !tbaa !132
  call void @llvm.lifetime.start.p0(i64 4, ptr %7) #13
  %18 = load ptr, ptr %4, align 8, !tbaa !153
  %19 = getelementptr inbounds nuw %class.btVector3, ptr %18, i32 0, i32 0
  %20 = getelementptr inbounds [4 x float], ptr %19, i64 0, i64 1
  %21 = load float, ptr %20, align 4, !tbaa !132
  %22 = load ptr, ptr %5, align 8, !tbaa !153
  %23 = getelementptr inbounds nuw %class.btVector3, ptr %22, i32 0, i32 0
  %24 = getelementptr inbounds [4 x float], ptr %23, i64 0, i64 1
  %25 = load float, ptr %24, align 4, !tbaa !132
  %26 = fmul float %21, %25
  store float %26, ptr %7, align 4, !tbaa !132
  call void @llvm.lifetime.start.p0(i64 4, ptr %8) #13
  %27 = load ptr, ptr %4, align 8, !tbaa !153
  %28 = getelementptr inbounds nuw %class.btVector3, ptr %27, i32 0, i32 0
  %29 = getelementptr inbounds [4 x float], ptr %28, i64 0, i64 2
  %30 = load float, ptr %29, align 4, !tbaa !132
  %31 = load ptr, ptr %5, align 8, !tbaa !153
  %32 = getelementptr inbounds nuw %class.btVector3, ptr %31, i32 0, i32 0
  %33 = getelementptr inbounds [4 x float], ptr %32, i64 0, i64 2
  %34 = load float, ptr %33, align 4, !tbaa !132
  %35 = fmul float %30, %34
  store float %35, ptr %8, align 4, !tbaa !132
  call void @_ZN9btVector3C2ERKfS1_S1_(ptr noundef nonnull align 4 dereferenceable(16) %3, ptr noundef nonnull align 4 dereferenceable(4) %6, ptr noundef nonnull align 4 dereferenceable(4) %7, ptr noundef nonnull align 4 dereferenceable(4) %8)
  call void @llvm.lifetime.end.p0(i64 4, ptr %8) #13
  call void @llvm.lifetime.end.p0(i64 4, ptr %7) #13
  call void @llvm.lifetime.end.p0(i64 4, ptr %6) #13
  %36 = getelementptr inbounds nuw %class.btVector3, ptr %3, i32 0, i32 0
  %37 = load { <2 x float>, <2 x float> }, ptr %36, align 4
  ret { <2 x float>, <2 x float> } %37
}

; Function Attrs: inlinehint mustprogress nounwind uwtable
define linkonce_odr dso_local noundef ptr @_ZN9btVector3cvPfEv(ptr noundef nonnull align 4 dereferenceable(16) %0) #5 comdat align 2 {
  %2 = alloca ptr, align 8
  store ptr %0, ptr %2, align 8, !tbaa !153
  %3 = load ptr, ptr %2, align 8
  %4 = getelementptr inbounds nuw %class.btVector3, ptr %3, i32 0, i32 0
  %5 = getelementptr inbounds [4 x float], ptr %4, i64 0, i64 0
  ret ptr %5
}

; Function Attrs: inlinehint mustprogress nounwind uwtable
define linkonce_odr dso_local void @_ZN9btVector3C2Ev(ptr noundef nonnull align 4 dereferenceable(16) %0) unnamed_addr #5 comdat align 2 {
  %2 = alloca ptr, align 8
  store ptr %0, ptr %2, align 8, !tbaa !153
  ret void
}

; Function Attrs: mustprogress uwtable
define dso_local { <2 x float>, <2 x float> } @_ZN20btConvexHullInternal10toBtVectorERKNS_7Point32E(ptr noundef nonnull align 8 dereferenceable(192) %0, ptr noundef nonnull align 4 dereferenceable(16) %1) #6 align 2 {
  %3 = alloca %class.btVector3, align 4
  %4 = alloca ptr, align 8
  %5 = alloca ptr, align 8
  %6 = alloca %class.btVector3, align 4
  store ptr %0, ptr %4, align 8, !tbaa !38
  store ptr %1, ptr %5, align 8, !tbaa !102
  %7 = load ptr, ptr %4, align 8
  call void @llvm.lifetime.start.p0(i64 16, ptr %6) #13
  call void @_ZN9btVector3C2Ev(ptr noundef nonnull align 4 dereferenceable(16) %6)
  %8 = load ptr, ptr %5, align 8, !tbaa !102
  %9 = getelementptr inbounds nuw %"class.btConvexHullInternal::Point32", ptr %8, i32 0, i32 0
  %10 = load i32, ptr %9, align 4, !tbaa !104
  %11 = sitofp i32 %10 to float
  %12 = call noundef ptr @_ZN9btVector3cvPfEv(ptr noundef nonnull align 4 dereferenceable(16) %6)
  %13 = getelementptr inbounds nuw %class.btConvexHullInternal, ptr %7, i32 0, i32 8
  %14 = load i32, ptr %13, align 8, !tbaa !146
  %15 = sext i32 %14 to i64
  %16 = getelementptr inbounds float, ptr %12, i64 %15
  store float %11, ptr %16, align 4, !tbaa !132
  %17 = load ptr, ptr %5, align 8, !tbaa !102
  %18 = getelementptr inbounds nuw %"class.btConvexHullInternal::Point32", ptr %17, i32 0, i32 1
  %19 = load i32, ptr %18, align 4, !tbaa !105
  %20 = sitofp i32 %19 to float
  %21 = call noundef ptr @_ZN9btVector3cvPfEv(ptr noundef nonnull align 4 dereferenceable(16) %6)
  %22 = getelementptr inbounds nuw %class.btConvexHullInternal, ptr %7, i32 0, i32 9
  %23 = load i32, ptr %22, align 4, !tbaa !144
  %24 = sext i32 %23 to i64
  %25 = getelementptr inbounds float, ptr %21, i64 %24
  store float %20, ptr %25, align 4, !tbaa !132
  %26 = load ptr, ptr %5, align 8, !tbaa !102
  %27 = getelementptr inbounds nuw %"class.btConvexHullInternal::Point32", ptr %26, i32 0, i32 2
  %28 = load i32, ptr %27, align 4, !tbaa !106
  %29 = sitofp i32 %28 to float
  %30 = call noundef ptr @_ZN9btVector3cvPfEv(ptr noundef nonnull align 4 dereferenceable(16) %6)
  %31 = getelementptr inbounds nuw %class.btConvexHullInternal, ptr %7, i32 0, i32 7
  %32 = load i32, ptr %31, align 4, !tbaa !145
  %33 = sext i32 %32 to i64
  %34 = getelementptr inbounds float, ptr %30, i64 %33
  store float %29, ptr %34, align 4, !tbaa !132
  %35 = getelementptr inbounds nuw %class.btConvexHullInternal, ptr %7, i32 0, i32 0
  %36 = call { <2 x float>, <2 x float> } @_ZmlRK9btVector3S1_(ptr noundef nonnull align 4 dereferenceable(16) %6, ptr noundef nonnull align 4 dereferenceable(16) %35)
  %37 = getelementptr inbounds nuw %class.btVector3, ptr %3, i32 0, i32 0
  %38 = getelementptr inbounds nuw { <2 x float>, <2 x float> }, ptr %37, i32 0, i32 0
  %39 = extractvalue { <2 x float>, <2 x float> } %36, 0
  store <2 x float> %39, ptr %38, align 4
  %40 = getelementptr inbounds nuw { <2 x float>, <2 x float> }, ptr %37, i32 0, i32 1
  %41 = extractvalue { <2 x float>, <2 x float> } %36, 1
  store <2 x float> %41, ptr %40, align 4
  call void @llvm.lifetime.end.p0(i64 16, ptr %6) #13
  %42 = getelementptr inbounds nuw %class.btVector3, ptr %3, i32 0, i32 0
  %43 = load { <2 x float>, <2 x float> }, ptr %42, align 4
  ret { <2 x float>, <2 x float> } %43
}